; Function Attrs: mustprogress uwtable
define dso_local void @_ZN28btCompoundCollisionAlgorithmC2ERK36btCollisionAlgorithmConstructionInfoPK24btCollisionObjectWrapperS5_b(ptr noundef nonnull align 8 dereferenceable(136) %0, ptr noundef nonnull align 8 dereferenceable(16) %1, ptr noundef %2, ptr noundef %3, i1 noundef zeroext %4) unnamed_addr #0 align 2 personality ptr @__gxx_personality_v0 {
  %6 = zext i1 %4 to i8
  tail call void @_ZN30btActivatingCollisionAlgorithmC2ERK36btCollisionAlgorithmConstructionInfoPK24btCollisionObjectWrapperS5_(ptr noundef nonnull align 8 dereferenceable(16) %0, ptr noundef nonnull align 8 dereferenceable(16) %1, ptr noundef %2, ptr noundef %3)
  store ptr getelementptr inbounds nuw inrange(-16, 40) (i8, ptr @_ZTV28btCompoundCollisionAlgorithm, i64 16), ptr %0, align 8, !tbaa !4
  %7 = getelementptr inbounds nuw i8, ptr %0, i64 40
  store i8 1, ptr %7, align 8, !tbaa !7
  %8 = getelementptr inbounds nuw i8, ptr %0, i64 32
  store ptr null, ptr %8, align 8, !tbaa !15
  %9 = getelementptr inbounds nuw i8, ptr %0, i64 20
  store i32 0, ptr %9, align 4, !tbaa !16
  %10 = getelementptr inbounds nuw i8, ptr %0, i64 24
  store i32 0, ptr %10, align 8, !tbaa !17
  %11 = getelementptr inbounds nuw i8, ptr %0, i64 72
  store i8 1, ptr %11, align 8, !tbaa !18
  %12 = getelementptr inbounds nuw i8, ptr %0, i64 64
  store ptr null, ptr %12, align 8, !tbaa !22
  %13 = getelementptr inbounds nuw i8, ptr %0, i64 52
  store i32 0, ptr %13, align 4, !tbaa !23
  %14 = getelementptr inbounds nuw i8, ptr %0, i64 56
  store i32 0, ptr %14, align 8, !tbaa !24
  %15 = getelementptr inbounds nuw i8, ptr %0, i64 104
  store i8 1, ptr %15, align 8, !tbaa !25
  %16 = getelementptr inbounds nuw i8, ptr %0, i64 96
  store ptr null, ptr %16, align 8, !tbaa !29
  %17 = getelementptr inbounds nuw i8, ptr %0, i64 84
  store i32 0, ptr %17, align 4, !tbaa !30
  %18 = getelementptr inbounds nuw i8, ptr %0, i64 88
  store i32 0, ptr %18, align 8, !tbaa !31
  %19 = getelementptr inbounds nuw i8, ptr %0, i64 112
  store i8 %6, ptr %19, align 8, !tbaa !32
  %20 = getelementptr inbounds nuw i8, ptr %0, i64 120
  %21 = getelementptr inbounds nuw i8, ptr %1, i64 8
  %22 = load ptr, ptr %21, align 8, !tbaa !38
  store ptr %22, ptr %20, align 8, !tbaa !40
  %23 = getelementptr inbounds nuw i8, ptr %0, i64 128
  store i8 0, ptr %23, align 8, !tbaa !41
  %24 = select i1 %4, ptr %3, ptr %2
  %25 = getelementptr inbounds nuw i8, ptr %24, i64 8
  %26 = load ptr, ptr %25, align 8, !tbaa !42
  %27 = getelementptr inbounds nuw i8, ptr %26, i64 104
  %28 = load i32, ptr %27, align 8, !tbaa !48
  %29 = getelementptr inbounds nuw i8, ptr %0, i64 132
  store i32 %28, ptr %29, align 4, !tbaa !57
  invoke void @_ZN28btCompoundCollisionAlgorithm26preallocateChildAlgorithmsEPK24btCollisionObjectWrapperS2_(ptr noundef nonnull align 8 dereferenceable(136) %0, ptr noundef %2, ptr noundef %3)
          to label %30 unwind label %31

30:                                               ; preds = %5
  ret void

31:                                               ; preds = %5
  %32 = landingpad { ptr, i32 }
          cleanup
  %33 = getelementptr inbounds nuw i8, ptr %0, i64 80
  %34 = getelementptr inbounds nuw i8, ptr %0, i64 48
  %35 = getelementptr inbounds nuw i8, ptr %0, i64 16
  tail call void @_ZN20btAlignedObjectArrayIP20btCollisionAlgorithmED2Ev(ptr noundef nonnull align 8 dereferenceable(25) %33) #15
  tail call void @_ZN20btAlignedObjectArrayIP20btPersistentManifoldED2Ev(ptr noundef nonnull align 8 dereferenceable(25) %34) #15
  tail call void @_ZN20btAlignedObjectArrayIPK10btDbvtNodeED2Ev(ptr noundef nonnull align 8 dereferenceable(25) %35) #15
  tail call void @_ZN30btActivatingCollisionAlgorithmD2Ev(ptr noundef nonnull align 8 dereferenceable(16) %0) #15
  resume { ptr, i32 } %32
}